; Function Attrs: mustprogress nounwind uwtable
define hidden void @_ZN4cvc58internal6theory11quantifiers17TermPoolQuantInfo10initializeEv(ptr nocapture noundef nonnull align 8 dereferenceable(48) %this) local_unnamed_addr #3 align 2 personality ptr @__gxx_personality_v0 {
entry:
  %0 = load ptr, ptr %this, align 8
  %_M_finish.i.i = getelementptr inbounds i8, ptr %this, i64 8
  %1 = load ptr, ptr %_M_finish.i.i, align 8
  %tobool.not.i.i = icmp eq ptr %1, %0
  br i1 %tobool.not.i.i, label %_ZNSt6vectorIN4cvc58internal12NodeTemplateILb1EEESaIS3_EE5clearEv.exit, label %for.body.i.i.i.i.i

for.body.i.i.i.i.i:                               ; preds = %entry, %_ZSt8_DestroyIN4cvc58internal12NodeTemplateILb1EEEEvPT_.exit.i.i.i.i.i
  %__first.addr.04.i.i.i.i.i = phi ptr [ %incdec.ptr.i.i.i.i.i, %_ZSt8_DestroyIN4cvc58internal12NodeTemplateILb1EEEEvPT_.exit.i.i.i.i.i ], [ %0, %entry ]
  %2 = load ptr, ptr %__first.addr.04.i.i.i.i.i, align 8
  %bf.load.i.i.i.i.i.i.i.i = load i64, ptr %2, align 8
  %3 = and i64 %bf.load.i.i.i.i.i.i.i.i, 1152920405095219200
  %cmp.not.i.i.i.i.i.i.i.i = icmp eq i64 %3, 1152920405095219200
  br i1 %cmp.not.i.i.i.i.i.i.i.i, label %_ZSt8_DestroyIN4cvc58internal12NodeTemplateILb1EEEEvPT_.exit.i.i.i.i.i, label %if.then.i.i.i.i.i.i.i.i

if.then.i.i.i.i.i.i.i.i:                          ; preds = %for.body.i.i.i.i.i
  %bf.value.i.i.i.i.i.i.i.i = add i64 %bf.load.i.i.i.i.i.i.i.i, 1152920405095219200
  %bf.shl.i.i.i.i.i.i.i.i = and i64 %bf.value.i.i.i.i.i.i.i.i, 1152920405095219200
  %bf.clear7.i.i.i.i.i.i.i.i = and i64 %bf.load.i.i.i.i.i.i.i.i, -1152920405095219201
  %bf.set.i.i.i.i.i.i.i.i = or disjoint i64 %bf.shl.i.i.i.i.i.i.i.i, %bf.clear7.i.i.i.i.i.i.i.i
  store i64 %bf.set.i.i.i.i.i.i.i.i, ptr %2, align 8
  %cmp12.i.i.i.i.i.i.i.i = icmp eq i64 %bf.shl.i.i.i.i.i.i.i.i, 0
  br i1 %cmp12.i.i.i.i.i.i.i.i, label %if.then13.i.i.i.i.i.i.i.i, label %_ZSt8_DestroyIN4cvc58internal12NodeTemplateILb1EEEEvPT_.exit.i.i.i.i.i

if.then13.i.i.i.i.i.i.i.i:                        ; preds = %if.then.i.i.i.i.i.i.i.i
  invoke void @_ZN4cvc58internal4expr9NodeValue15markForDeletionEv(ptr noundef nonnull align 8 dereferenceable(16) %2)
          to label %_ZSt8_DestroyIN4cvc58internal12NodeTemplateILb1EEEEvPT_.exit.i.i.i.i.i unwind label %terminate.lpad.i.i.i.i.i.i.i

terminate.lpad.i.i.i.i.i.i.i:                     ; preds = %if.then13.i.i.i.i.i.i.i.i
  %4 = landingpad { ptr, i32 }
          catch ptr null
  %5 = extractvalue { ptr, i32 } %4, 0
  tail call void @__clang_call_terminate(ptr %5) #16
  unreachable

_ZSt8_DestroyIN4cvc58internal12NodeTemplateILb1EEEEvPT_.exit.i.i.i.i.i: ; preds = %if.then13.i.i.i.i.i.i.i.i, %if.then.i.i.i.i.i.i.i.i, %for.body.i.i.i.i.i
  %incdec.ptr.i.i.i.i.i = getelementptr inbounds i8, ptr %__first.addr.04.i.i.i.i.i, i64 8
  %cmp.not.i.i.i.i.i = icmp eq ptr %incdec.ptr.i.i.i.i.i, %1
  br i1 %cmp.not.i.i.i.i.i, label %invoke.cont.i.i, label %for.body.i.i.i.i.i, !llvm.loop !4

invoke.cont.i.i:                                  ; preds = %_ZSt8_DestroyIN4cvc58internal12NodeTemplateILb1EEEEvPT_.exit.i.i.i.i.i
  store ptr %0, ptr %_M_finish.i.i, align 8
  br label %_ZNSt6vectorIN4cvc58internal12NodeTemplateILb1EEESaIS3_EE5clearEv.exit

_ZNSt6vectorIN4cvc58internal12NodeTemplateILb1EEESaIS3_EE5clearEv.exit: ; preds = %entry, %invoke.cont.i.i
  %d_skolemAddToPool = getelementptr inbounds i8, ptr %this, i64 24
  %6 = load ptr, ptr %d_skolemAddToPool, align 8
  %_M_finish.i.i1 = getelementptr inbounds i8, ptr %this, i64 32
  %7 = load ptr, ptr %_M_finish.i.i1, align 8
  %tobool.not.i.i2 = icmp eq ptr %7, %6
  br i1 %tobool.not.i.i2, label %_ZNSt6vectorIN4cvc58internal12NodeTemplateILb1EEESaIS3_EE5clearEv.exit19, label %for.body.i.i.i.i.i3

for.body.i.i.i.i.i3:                              ; preds = %_ZNSt6vectorIN4cvc58internal12NodeTemplateILb1EEESaIS3_EE5clearEv.exit, %_ZSt8_DestroyIN4cvc58internal12NodeTemplateILb1EEEEvPT_.exit.i.i.i.i.i13
  %__first.addr.04.i.i.i.i.i4 = phi ptr [ %incdec.ptr.i.i.i.i.i14, %_ZSt8_DestroyIN4cvc58internal12NodeTemplateILb1EEEEvPT_.exit.i.i.i.i.i13 ], [ %6, %_ZNSt6vectorIN4cvc58internal12NodeTemplateILb1EEESaIS3_EE5clearEv.exit ]
  %8 = load ptr, ptr %__first.addr.04.i.i.i.i.i4, align 8
  %bf.load.i.i.i.i.i.i.i.i5 = load i64, ptr %8, align 8
  %9 = and i64 %bf.load.i.i.i.i.i.i.i.i5, 1152920405095219200
  %cmp.not.i.i.i.i.i.i.i.i6 = icmp eq i64 %9, 1152920405095219200
  br i1 %cmp.not.i.i.i.i.i.i.i.i6, label %_ZSt8_DestroyIN4cvc58internal12NodeTemplateILb1EEEEvPT_.exit.i.i.i.i.i13, label %if.then.i.i.i.i.i.i.i.i7

if.then.i.i.i.i.i.i.i.i7:                         ; preds = %for.body.i.i.i.i.i3
  %bf.value.i.i.i.i.i.i.i.i8 = add i64 %bf.load.i.i.i.i.i.i.i.i5, 1152920405095219200
  %bf.shl.i.i.i.i.i.i.i.i9 = and i64 %bf.value.i.i.i.i.i.i.i.i8, 1152920405095219200
  %bf.clear7.i.i.i.i.i.i.i.i10 = and i64 %bf.load.i.i.i.i.i.i.i.i5, -1152920405095219201
  %bf.set.i.i.i.i.i.i.i.i11 = or disjoint i64 %bf.shl.i.i.i.i.i.i.i.i9, %bf.clear7.i.i.i.i.i.i.i.i10
  store i64 %bf.set.i.i.i.i.i.i.i.i11, ptr %8, align 8
  %cmp12.i.i.i.i.i.i.i.i12 = icmp eq i64 %bf.shl.i.i.i.i.i.i.i.i9, 0
  br i1 %cmp12.i.i.i.i.i.i.i.i12, label %if.then13.i.i.i.i.i.i.i.i17, label %_ZSt8_DestroyIN4cvc58internal12NodeTemplateILb1EEEEvPT_.exit.i.i.i.i.i13

if.then13.i.i.i.i.i.i.i.i17:                      ; preds = %if.then.i.i.i.i.i.i.i.i7
  invoke void @_ZN4cvc58internal4expr9NodeValue15markForDeletionEv(ptr noundef nonnull align 8 dereferenceable(16) %8)
          to label %_ZSt8_DestroyIN4cvc58internal12NodeTemplateILb1EEEEvPT_.exit.i.i.i.i.i13 unwind label %terminate.lpad.i.i.i.i.i.i.i18

terminate.lpad.i.i.i.i.i.i.i18:                   ; preds = %if.then13.i.i.i.i.i.i.i.i17
  %10 = landingpad { ptr, i32 }
          catch ptr null
  %11 = extractvalue { ptr, i32 } %10, 0
  tail call void @__clang_call_terminate(ptr %11) #16
  unreachable

_ZSt8_DestroyIN4cvc58internal12NodeTemplateILb1EEEEvPT_.exit.i.i.i.i.i13: ; preds = %if.then13.i.i.i.i.i.i.i.i17, %if.then.i.i.i.i.i.i.i.i7, %for.body.i.i.i.i.i3
  %incdec.ptr.i.i.i.i.i14 = getelementptr inbounds i8, ptr %__first.addr.04.i.i.i.i.i4, i64 8
  %cmp.not.i.i.i.i.i15 = icmp eq ptr %incdec.ptr.i.i.i.i.i14, %7
  br i1 %cmp.not.i.i.i.i.i15, label %invoke.cont.i.i16, label %for.body.i.i.i.i.i3, !llvm.loop !4

invoke.cont.i.i16:                                ; preds = %_ZSt8_DestroyIN4cvc58internal12NodeTemplateILb1EEEEvPT_.exit.i.i.i.i.i13
  store ptr %6, ptr %_M_finish.i.i1, align 8
  br label %_ZNSt6vectorIN4cvc58internal12NodeTemplateILb1EEESaIS3_EE5clearEv.exit19

_ZNSt6vectorIN4cvc58internal12NodeTemplateILb1EEESaIS3_EE5clearEv.exit19: ; preds = %_ZNSt6vectorIN4cvc58internal12NodeTemplateILb1EEESaIS3_EE5clearEv.exit, %invoke.cont.i.i16
  ret void
}